target datalayout = "e-m:e-p270:32:32-p271:32:32-p272:64:64-i64:64-i128:128-f80:128-n8:16:32:64-S128"
target triple = "x86_64-pc-linux-gnu"

%struct.PHP_GOST_CTX = type { [16 x i32], [2 x i32], i8, [32 x i8], ptr }

; Function Attrs: nounwind uwtable
define internal void @GostTransform(ptr noundef %0, ptr noundef %1) #0 {
  %3 = alloca ptr, align 8
  %4 = alloca ptr, align 8
  %5 = alloca i32, align 4
  %6 = alloca i32, align 4
  %7 = alloca [8 x i32], align 16
  %8 = alloca i32, align 4
  store ptr %0, ptr %3, align 8
  store ptr %1, ptr %4, align 8
  store i32 0, ptr %8, align 4
  store i32 0, ptr %5, align 4
  store i32 0, ptr %6, align 4
  br label %9

9:                                                ; preds = %96, %2
  %10 = load i32, ptr %5, align 4
  %11 = icmp slt i32 %10, 8
  br i1 %11, label %12, label %101

12:                                               ; preds = %9
  %13 = load ptr, ptr %4, align 8
  %14 = load i32, ptr %6, align 4
  %15 = sext i32 %14 to i64
  %16 = getelementptr inbounds i8, ptr %13, i64 %15
  %17 = load i8, ptr %16, align 1
  %18 = zext i8 %17 to i32
  %19 = load ptr, ptr %4, align 8
  %20 = load i32, ptr %6, align 4
  %21 = add nsw i32 %20, 1
  %22 = sext i32 %21 to i64
  %23 = getelementptr inbounds i8, ptr %19, i64 %22
  %24 = load i8, ptr %23, align 1
  %25 = zext i8 %24 to i32
  %26 = shl i32 %25, 8
  %27 = or i32 %18, %26
  %28 = load ptr, ptr %4, align 8
  %29 = load i32, ptr %6, align 4
  %30 = add nsw i32 %29, 2
  %31 = sext i32 %30 to i64
  %32 = getelementptr inbounds i8, ptr %28, i64 %31
  %33 = load i8, ptr %32, align 1
  %34 = zext i8 %33 to i32
  %35 = shl i32 %34, 16
  %36 = or i32 %27, %35
  %37 = load ptr, ptr %4, align 8
  %38 = load i32, ptr %6, align 4
  %39 = add nsw i32 %38, 3
  %40 = sext i32 %39 to i64
  %41 = getelementptr inbounds i8, ptr %37, i64 %40
  %42 = load i8, ptr %41, align 1
  %43 = zext i8 %42 to i32
  %44 = shl i32 %43, 24
  %45 = or i32 %36, %44
  %46 = load i32, ptr %5, align 4
  %47 = sext i32 %46 to i64
  %48 = getelementptr inbounds [8 x i32], ptr %7, i64 0, i64 %47
  store i32 %45, ptr %48, align 4
  %49 = load i32, ptr %5, align 4
  %50 = sext i32 %49 to i64
  %51 = getelementptr inbounds [8 x i32], ptr %7, i64 0, i64 %50
  %52 = load i32, ptr %51, align 4
  %53 = load i32, ptr %8, align 4
  %54 = add i32 %52, %53
  %55 = load ptr, ptr %3, align 8
  %56 = getelementptr inbounds %struct.PHP_GOST_CTX, ptr %55, i32 0, i32 0
  %57 = load i32, ptr %5, align 4
  %58 = add nsw i32 %57, 8
  %59 = sext i32 %58 to i64
  %60 = getelementptr inbounds [16 x i32], ptr %56, i64 0, i64 %59
  %61 = load i32, ptr %60, align 4
  %62 = add i32 %61, %54
  store i32 %62, ptr %60, align 4
  %63 = load ptr, ptr %3, align 8
  %64 = getelementptr inbounds %struct.PHP_GOST_CTX, ptr %63, i32 0, i32 0
  %65 = load i32, ptr %5, align 4
  %66 = add nsw i32 %65, 8
  %67 = sext i32 %66 to i64
  %68 = getelementptr inbounds [16 x i32], ptr %64, i64 0, i64 %67
  %69 = load i32, ptr %68, align 4
  %70 = load i32, ptr %5, align 4
  %71 = sext i32 %70 to i64
  %72 = getelementptr inbounds [8 x i32], ptr %7, i64 0, i64 %71
  %73 = load i32, ptr %72, align 4
  %74 = icmp ult i32 %69, %73
  br i1 %74, label %75, label %76

75:                                               ; preds = %12
  br label %94

76:                                               ; preds = %12
  %77 = load ptr, ptr %3, align 8
  %78 = getelementptr inbounds %struct.PHP_GOST_CTX, ptr %77, i32 0, i32 0
  %79 = load i32, ptr %5, align 4
  %80 = add nsw i32 %79, 8
  %81 = sext i32 %80 to i64
  %82 = getelementptr inbounds [16 x i32], ptr %78, i64 0, i64 %81
  %83 = load i32, ptr %82, align 4
  %84 = load i32, ptr %5, align 4
  %85 = sext i32 %84 to i64
  %86 = getelementptr inbounds [8 x i32], ptr %7, i64 0, i64 %85
  %87 = load i32, ptr %86, align 4
  %88 = icmp eq i32 %83, %87
  br i1 %88, label %89, label %91

89:                                               ; preds = %76
  %90 = load i32, ptr %8, align 4
  br label %92

91:                                               ; preds = %76
  br label %92

92:                                               ; preds = %91, %89
  %93 = phi i32 [ %90, %89 ], [ 0, %91 ]
  br label %94

94:                                               ; preds = %92, %75
  %95 = phi i32 [ 1, %75 ], [ %93, %92 ]
  store i32 %95, ptr %8, align 4
  br label %96

96:                                               ; preds = %94
  %97 = load i32, ptr %5, align 4
  %98 = add nsw i32 %97, 1
  store i32 %98, ptr %5, align 4
  %99 = load i32, ptr %6, align 4
  %100 = add nsw i32 %99, 4
  store i32 %100, ptr %6, align 4
  br label %9

101:                                              ; preds = %9
  %102 = load ptr, ptr %3, align 8
  %103 = getelementptr inbounds [8 x i32], ptr %7, i64 0, i64 0
  call void @Gost(ptr noundef %102, ptr noundef %103)
  ret void
}

; Function Attrs: nounwind uwtable
define void @PHP_GOSTUpdate(ptr noundef %0, ptr noundef %1, i64 noundef %2) #0 {
  %4 = alloca ptr, align 8
  %5 = alloca ptr, align 8
  %6 = alloca i64, align 8
  %7 = alloca i64, align 8
  %8 = alloca i64, align 8
  store ptr %0, ptr %4, align 8
  store ptr %1, ptr %5, align 8
  store i64 %2, ptr %6, align 8
  %9 = load ptr, ptr %4, align 8
  %10 = getelementptr inbounds %struct.PHP_GOST_CTX, ptr %9, i32 0, i32 1
  %11 = getelementptr inbounds [2 x i32], ptr %10, i64 0, i64 0
  %12 = load i32, ptr %11, align 8
  %13 = sub i32 -1, %12
  %14 = zext i32 %13 to i64
  %15 = load i64, ptr %6, align 8
  %16 = mul i64 %15, 8
  %17 = icmp ult i64 %14, %16
  br i1 %17, label %18, label %44

18:                                               ; preds = %3
  %19 = load ptr, ptr %4, align 8
  %20 = getelementptr inbounds %struct.PHP_GOST_CTX, ptr %19, i32 0, i32 1
  %21 = getelementptr inbounds [2 x i32], ptr %20, i64 0, i64 1
  %22 = load i32, ptr %21, align 4
  %23 = add i32 %22, 1
  store i32 %23, ptr %21, align 4
  %24 = load ptr, ptr %4, align 8
  %25 = getelementptr inbounds %struct.PHP_GOST_CTX, ptr %24, i32 0, i32 1
  %26 = getelementptr inbounds [2 x i32], ptr %25, i64 0, i64 0
  %27 = load i32, ptr %26, align 8
  %28 = sub i32 -1, %27
  %29 = load ptr, ptr %4, align 8
  %30 = getelementptr inbounds %struct.PHP_GOST_CTX, ptr %29, i32 0, i32 1
  %31 = getelementptr inbounds [2 x i32], ptr %30, i64 0, i64 0
  store i32 %28, ptr %31, align 8
  %32 = load i64, ptr %6, align 8
  %33 = mul i64 %32, 8
  %34 = load ptr, ptr %4, align 8
  %35 = getelementptr inbounds %struct.PHP_GOST_CTX, ptr %34, i32 0, i32 1
  %36 = getelementptr inbounds [2 x i32], ptr %35, i64 0, i64 0
  %37 = load i32, ptr %36, align 8
  %38 = zext i32 %37 to i64
  %39 = sub i64 %33, %38
  %40 = trunc i64 %39 to i32
  %41 = load ptr, ptr %4, align 8
  %42 = getelementptr inbounds %struct.PHP_GOST_CTX, ptr %41, i32 0, i32 1
  %43 = getelementptr inbounds [2 x i32], ptr %42, i64 0, i64 0
  store i32 %40, ptr %43, align 8
  br label %54

44:                                               ; preds = %3
  %45 = load i64, ptr %6, align 8
  %46 = mul i64 %45, 8
  %47 = load ptr, ptr %4, align 8
  %48 = getelementptr inbounds %struct.PHP_GOST_CTX, ptr %47, i32 0, i32 1
  %49 = getelementptr inbounds [2 x i32], ptr %48, i64 0, i64 0
  %50 = load i32, ptr %49, align 8
  %51 = zext i32 %50 to i64
  %52 = add i64 %51, %46
  %53 = trunc i64 %52 to i32
  store i32 %53, ptr %49, align 8
  br label %54

54:                                               ; preds = %44, %18
  %55 = load ptr, ptr %4, align 8
  %56 = getelementptr inbounds %struct.PHP_GOST_CTX, ptr %55, i32 0, i32 2
  %57 = load i8, ptr %56, align 8
  %58 = zext i8 %57 to i64
  %59 = load i64, ptr %6, align 8
  %60 = add i64 %58, %59
  %61 = icmp ult i64 %60, 32
  br i1 %61, label %62, label %81

62:                                               ; preds = %54
  %63 = load ptr, ptr %4, align 8
  %64 = getelementptr inbounds %struct.PHP_GOST_CTX, ptr %63, i32 0, i32 3
  %65 = load ptr, ptr %4, align 8
  %66 = getelementptr inbounds %struct.PHP_GOST_CTX, ptr %65, i32 0, i32 2
  %67 = load i8, ptr %66, align 8
  %68 = zext i8 %67 to i64
  %69 = getelementptr inbounds [32 x i8], ptr %64, i64 0, i64 %68
  %70 = load ptr, ptr %5, align 8
  %71 = load i64, ptr %6, align 8
  call void @llvm.memcpy.p0.p0.i64(ptr align 1 %69, ptr align 1 %70, i64 %71, i1 false)
  %72 = load i64, ptr %6, align 8
  %73 = trunc i64 %72 to i8
  %74 = zext i8 %73 to i32
  %75 = load ptr, ptr %4, align 8
  %76 = getelementptr inbounds %struct.PHP_GOST_CTX, ptr %75, i32 0, i32 2
  %77 = load i8, ptr %76, align 8
  %78 = zext i8 %77 to i32
  %79 = add nsw i32 %78, %74
  %80 = trunc i32 %79 to i8
  store i8 %80, ptr %76, align 8
  br label %145

81:                                               ; preds = %54
  store i64 0, ptr %7, align 8
  %82 = load ptr, ptr %4, align 8
  %83 = getelementptr inbounds %struct.PHP_GOST_CTX, ptr %82, i32 0, i32 2
  %84 = load i8, ptr %83, align 8
  %85 = zext i8 %84 to i64
  %86 = load i64, ptr %6, align 8
  %87 = add i64 %85, %86
  %88 = urem i64 %87, 32
  store i64 %88, ptr %8, align 8
  %89 = load ptr, ptr %4, align 8
  %90 = getelementptr inbounds %struct.PHP_GOST_CTX, ptr %89, i32 0, i32 2
  %91 = load i8, ptr %90, align 8
  %92 = icmp ne i8 %91, 0
  br i1 %92, label %93, label %113

93:                                               ; preds = %81
  %94 = load ptr, ptr %4, align 8
  %95 = getelementptr inbounds %struct.PHP_GOST_CTX, ptr %94, i32 0, i32 2
  %96 = load i8, ptr %95, align 8
  %97 = zext i8 %96 to i32
  %98 = sub nsw i32 32, %97
  %99 = sext i32 %98 to i64
  store i64 %99, ptr %7, align 8
  %100 = load ptr, ptr %4, align 8
  %101 = getelementptr inbounds %struct.PHP_GOST_CTX, ptr %100, i32 0, i32 3
  %102 = load ptr, ptr %4, align 8
  %103 = getelementptr inbounds %struct.PHP_GOST_CTX, ptr %102, i32 0, i32 2
  %104 = load i8, ptr %103, align 8
  %105 = zext i8 %104 to i64
  %106 = getelementptr inbounds [32 x i8], ptr %101, i64 0, i64 %105
  %107 = load ptr, ptr %5, align 8
  %108 = load i64, ptr %7, align 8
  call void @llvm.memcpy.p0.p0.i64(ptr align 1 %106, ptr align 1 %107, i64 %108, i1 false)
  %109 = load ptr, ptr %4, align 8
  %110 = load ptr, ptr %4, align 8
  %111 = getelementptr inbounds %struct.PHP_GOST_CTX, ptr %110, i32 0, i32 3
  %112 = getelementptr inbounds [32 x i8], ptr %111, i64 0, i64 0
  call void @GostTransform(ptr noundef %109, ptr noundef %112)
  br label %113

113:                                              ; preds = %93, %81
  br label %114

114:                                              ; preds = %124, %113
  %115 = load i64, ptr %7, align 8
  %116 = add i64 %115, 32
  %117 = load i64, ptr %6, align 8
  %118 = icmp ule i64 %116, %117
  br i1 %118, label %119, label %127

119:                                              ; preds = %114
  %120 = load ptr, ptr %4, align 8
  %121 = load ptr, ptr %5, align 8
  %122 = load i64, ptr %7, align 8
  %123 = getelementptr inbounds i8, ptr %121, i64 %122
  call void @GostTransform(ptr noundef %120, ptr noundef %123)
  br label %124

124:                                              ; preds = %119
  %125 = load i64, ptr %7, align 8
  %126 = add i64 %125, 32
  store i64 %126, ptr %7, align 8
  br label %114

127:                                              ; preds = %114
  %128 = load ptr, ptr %4, align 8
  %129 = getelementptr inbounds %struct.PHP_GOST_CTX, ptr %128, i32 0, i32 3
  %130 = getelementptr inbounds [32 x i8], ptr %129, i64 0, i64 0
  %131 = load ptr, ptr %5, align 8
  %132 = load i64, ptr %7, align 8
  %133 = getelementptr inbounds i8, ptr %131, i64 %132
  %134 = load i64, ptr %8, align 8
  call void @llvm.memcpy.p0.p0.i64(ptr align 1 %130, ptr align 1 %133, i64 %134, i1 false)
  %135 = load ptr, ptr %4, align 8
  %136 = getelementptr inbounds %struct.PHP_GOST_CTX, ptr %135, i32 0, i32 3
  %137 = load i64, ptr %8, align 8
  %138 = getelementptr inbounds [32 x i8], ptr %136, i64 0, i64 %137
  %139 = load i64, ptr %8, align 8
  %140 = sub i64 32, %139
  call void @explicit_bzero(ptr noundef %138, i64 noundef %140) #5
  %141 = load i64, ptr %8, align 8
  %142 = trunc i64 %141 to i8
  %143 = load ptr, ptr %4, align 8
  %144 = getelementptr inbounds %struct.PHP_GOST_CTX, ptr %143, i32 0, i32 2
  store i8 %142, ptr %144, align 8
  br label %145

145:                                              ; preds = %127, %62
  ret void
}