; Function Attrs: nounwind uwtable
define void @PHP_GOSTUpdate(ptr noundef %0, ptr nocapture noundef readonly %1, i64 noundef %2) #2 {
  %4 = alloca [8 x i32], align 16
  %5 = alloca [8 x i32], align 16
  %6 = getelementptr inbounds i8, ptr %0, i64 64
  %7 = load i32, ptr %6, align 8
  %8 = xor i32 %7, -1
  %9 = zext i32 %8 to i64
  %10 = shl i64 %2, 3
  %11 = icmp ugt i64 %10, %9
  br i1 %11, label %12, label %18

12:                                               ; preds = %3
  %13 = getelementptr inbounds i8, ptr %0, i64 68
  %14 = load i32, ptr %13, align 4
  %15 = add i32 %14, 1
  store i32 %15, ptr %13, align 4
  %16 = trunc i64 %10 to i32
  %.neg = or disjoint i32 %16, 1
  %17 = add i32 %.neg, %7
  br label %21

18:                                               ; preds = %3
  %19 = trunc i64 %10 to i32
  %20 = add i32 %7, %19
  br label %21

21:                                               ; preds = %18, %12
  %storemerge = phi i32 [ %20, %18 ], [ %17, %12 ]
  store i32 %storemerge, ptr %6, align 8
  %22 = getelementptr inbounds i8, ptr %0, i64 72
  %23 = load i8, ptr %22, align 8
  %24 = zext i8 %23 to i64
  %25 = add i64 %24, %2
  %26 = icmp ult i64 %25, 32
  br i1 %26, label %27, label %33

27:                                               ; preds = %21
  %28 = getelementptr inbounds i8, ptr %0, i64 73
  %29 = getelementptr inbounds [32 x i8], ptr %28, i64 0, i64 %24
  tail call void @llvm.memcpy.p0.p0.i64(ptr nonnull align 1 %29, ptr align 1 %1, i64 %2, i1 false)
  %30 = trunc i64 %2 to i8
  %31 = load i8, ptr %22, align 8
  %32 = add i8 %31, %30
  br label %113

33:                                               ; preds = %21
  %34 = and i64 %25, 31
  %.not = icmp eq i8 %23, 0
  br i1 %.not, label %71, label %35

35:                                               ; preds = %33
  %36 = sub nsw i64 32, %24
  %37 = getelementptr inbounds i8, ptr %0, i64 73
  %38 = getelementptr inbounds [32 x i8], ptr %37, i64 0, i64 %24
  tail call void @llvm.memcpy.p0.p0.i64(ptr nonnull align 1 %38, ptr align 1 %1, i64 %36, i1 false)
  call void @llvm.lifetime.start.p0(i64 32, ptr nonnull %5)
  br label %39

39:                                               ; preds = %39, %35
  %indvars.iv30.i = phi i64 [ 0, %35 ], [ %indvars.iv.next31.i, %39 ]
  %indvars.iv.i = phi i64 [ 0, %35 ], [ %indvars.iv.next.i, %39 ]
  %.029.i = phi i32 [ 0, %35 ], [ %70, %39 ]
  %40 = getelementptr inbounds i8, ptr %37, i64 %indvars.iv.i
  %41 = load i8, ptr %40, align 1
  %42 = zext i8 %41 to i32
  %43 = or disjoint i64 %indvars.iv.i, 1
  %44 = getelementptr inbounds i8, ptr %37, i64 %43
  %45 = load i8, ptr %44, align 1
  %46 = zext i8 %45 to i32
  %47 = shl nuw nsw i32 %46, 8
  %48 = or disjoint i32 %47, %42
  %49 = or disjoint i64 %indvars.iv.i, 2
  %50 = getelementptr inbounds i8, ptr %37, i64 %49
  %51 = load i8, ptr %50, align 1
  %52 = zext i8 %51 to i32
  %53 = shl nuw nsw i32 %52, 16
  %54 = or disjoint i32 %48, %53
  %55 = or disjoint i64 %indvars.iv.i, 3
  %56 = getelementptr inbounds i8, ptr %37, i64 %55
  %57 = load i8, ptr %56, align 1
  %58 = zext i8 %57 to i32
  %59 = shl nuw i32 %58, 24
  %60 = or disjoint i32 %54, %59
  %61 = getelementptr inbounds [8 x i32], ptr %5, i64 0, i64 %indvars.iv30.i
  store i32 %60, ptr %61, align 4
  %62 = or disjoint i64 %indvars.iv30.i, 8
  %63 = getelementptr inbounds [16 x i32], ptr %0, i64 0, i64 %62
  %64 = load i32, ptr %63, align 4
  %65 = add i32 %64, %.029.i
  %66 = add i32 %65, %60
  store i32 %66, ptr %63, align 4
  %67 = icmp ult i32 %66, %60
  %68 = icmp eq i32 %65, 0
  %69 = select i1 %68, i32 %.029.i, i32 0
  %70 = select i1 %67, i32 1, i32 %69
  %indvars.iv.next31.i = add nuw nsw i64 %indvars.iv30.i, 1
  %indvars.iv.next.i = add nuw nsw i64 %indvars.iv.i, 4
  %exitcond.not.i = icmp eq i64 %indvars.iv.next31.i, 8
  br i1 %exitcond.not.i, label %GostTransform.exit, label %39

GostTransform.exit:                               ; preds = %39
  call fastcc void @Gost(ptr noundef nonnull %0, ptr noundef nonnull %5)
  call void @llvm.lifetime.end.p0(i64 32, ptr nonnull %5)
  br label %71

71:                                               ; preds = %GostTransform.exit, %33
  %.0 = phi i64 [ %36, %GostTransform.exit ], [ 0, %33 ]
  %72 = add nsw i64 %.0, 32
  %.not4756 = icmp ugt i64 %72, %2
  br i1 %.not4756, label %._crit_edge, label %.lr.ph

.lr.ph:                                           ; preds = %71, %GostTransform.exit55
  %73 = phi i64 [ %107, %GostTransform.exit55 ], [ %72, %71 ]
  %.157 = phi i64 [ %73, %GostTransform.exit55 ], [ %.0, %71 ]
  %74 = getelementptr inbounds i8, ptr %1, i64 %.157
  call void @llvm.lifetime.start.p0(i64 32, ptr nonnull %4)
  br label %75

75:                                               ; preds = %75, %.lr.ph
  %indvars.iv30.i49 = phi i64 [ 0, %.lr.ph ], [ %indvars.iv.next31.i52, %75 ]
  %indvars.iv.i50 = phi i64 [ 0, %.lr.ph ], [ %indvars.iv.next.i53, %75 ]
  %.029.i51 = phi i32 [ 0, %.lr.ph ], [ %106, %75 ]
  %76 = getelementptr inbounds i8, ptr %74, i64 %indvars.iv.i50
  %77 = load i8, ptr %76, align 1
  %78 = zext i8 %77 to i32
  %79 = or disjoint i64 %indvars.iv.i50, 1
  %80 = getelementptr inbounds i8, ptr %74, i64 %79
  %81 = load i8, ptr %80, align 1
  %82 = zext i8 %81 to i32
  %83 = shl nuw nsw i32 %82, 8
  %84 = or disjoint i32 %83, %78
  %85 = or disjoint i64 %indvars.iv.i50, 2
  %86 = getelementptr inbounds i8, ptr %74, i64 %85
  %87 = load i8, ptr %86, align 1
  %88 = zext i8 %87 to i32
  %89 = shl nuw nsw i32 %88, 16
  %90 = or disjoint i32 %84, %89
  %91 = or disjoint i64 %indvars.iv.i50, 3
  %92 = getelementptr inbounds i8, ptr %74, i64 %91
  %93 = load i8, ptr %92, align 1
  %94 = zext i8 %93 to i32
  %95 = shl nuw i32 %94, 24
  %96 = or disjoint i32 %90, %95
  %97 = getelementptr inbounds [8 x i32], ptr %4, i64 0, i64 %indvars.iv30.i49
  store i32 %96, ptr %97, align 4
  %98 = or disjoint i64 %indvars.iv30.i49, 8
  %99 = getelementptr inbounds [16 x i32], ptr %0, i64 0, i64 %98
  %100 = load i32, ptr %99, align 4
  %101 = add i32 %100, %.029.i51
  %102 = add i32 %101, %96
  store i32 %102, ptr %99, align 4
  %103 = icmp ult i32 %102, %96
  %104 = icmp eq i32 %101, 0
  %105 = select i1 %104, i32 %.029.i51, i32 0
  %106 = select i1 %103, i32 1, i32 %105
  %indvars.iv.next31.i52 = add nuw nsw i64 %indvars.iv30.i49, 1
  %indvars.iv.next.i53 = add nuw nsw i64 %indvars.iv.i50, 4
  %exitcond.not.i54 = icmp eq i64 %indvars.iv.next31.i52, 8
  br i1 %exitcond.not.i54, label %GostTransform.exit55, label %75

GostTransform.exit55:                             ; preds = %75
  call fastcc void @Gost(ptr noundef nonnull %0, ptr noundef nonnull %4)
  call void @llvm.lifetime.end.p0(i64 32, ptr nonnull %4)
  %107 = add i64 %73, 32
  %.not47 = icmp ugt i64 %107, %2
  br i1 %.not47, label %._crit_edge, label %.lr.ph

._crit_edge:                                      ; preds = %GostTransform.exit55, %71
  %.1.lcssa = phi i64 [ %.0, %71 ], [ %73, %GostTransform.exit55 ]
  %108 = getelementptr inbounds i8, ptr %0, i64 73
  %109 = getelementptr inbounds i8, ptr %1, i64 %.1.lcssa
  tail call void @llvm.memcpy.p0.p0.i64(ptr nonnull align 1 %108, ptr align 1 %109, i64 %34, i1 false)
  %110 = getelementptr inbounds [32 x i8], ptr %108, i64 0, i64 %34
  %111 = sub nuw nsw i64 32, %34
  tail call void @explicit_bzero(ptr noundef nonnull %110, i64 noundef %111) #8
  %112 = trunc i64 %34 to i8
  br label %113

113:                                              ; preds = %._crit_edge, %27
  %storemerge48 = phi i8 [ %112, %._crit_edge ], [ %32, %27 ]
  store i8 %storemerge48, ptr %22, align 8
  ret void
}